; Function Attrs: mustprogress noreturn uwtable
define internal fastcc void @"_ZZN17absl_log_internal44CHECKTest_TestSecondaryFailureInMessage_Test8TestBodyEvENK3$_0clEv"() unnamed_addr #14 align 2 personality ptr @__gxx_personality_v0 {
entry:
  %ref.tmp2 = alloca %"class.absl::log_internal::LogMessageFatal", align 8
  call void @_ZN4absl12log_internal15LogMessageFatalC1EPKciSt17basic_string_viewIcSt11char_traitsIcEE(ptr noundef nonnull align 8 dereferenceable(16) %ref.tmp2, ptr noundef nonnull @.str.4, i32 noundef 222, i64 5, ptr nonnull @.str.7) #24
  %call3 = invoke noundef nonnull align 8 dereferenceable(16) ptr @_ZN4absl12log_internal10LogMessagelsILi10EEERS1_RAT__Kc(ptr noundef nonnull align 8 dereferenceable(16) %ref.tmp2, ptr noundef nonnull align 1 dereferenceable(10) @.str.87)
          to label %invoke.cont unwind label %lpad

invoke.cont:                                      ; preds = %entry
  call void @_ZN4absl12log_internal15LogMessageFatalD1Ev(ptr noundef nonnull align 8 dereferenceable(16) %ref.tmp2) #23
  unreachable

lpad:                                             ; preds = %entry
  %0 = landingpad { ptr, i32 }
          cleanup
  call void @_ZN4absl12log_internal15LogMessageFatalD1Ev(ptr noundef nonnull align 8 dereferenceable(16) %ref.tmp2) #23
  unreachable
}